Archive member included because of file (symbol)

../../BSP/Debug\libBSP.a(iis.o)
                              ./lab9-efectos.o (iis_init)
../../BSP/Debug\libBSP.a(keypad.o)
                              ./lab9-efectos.o (keypad_pressed)
../../BSP/Debug\libBSP.a(segs.o)
                              ./lab9-efectos.o (segs_init)
../../BSP/Debug\libBSP.a(system.o)
                              ./lab9-efectos.o (sys_init)
../../BSP/Debug\libBSP.a(timers.o)
                              ../../BSP/Debug\libBSP.a(keypad.o) (timers_init)
../../BSP/Debug\libBSP.a(uart.o)
                              ./lab9-efectos.o (uart0_init)
../../BSP/Debug\libBSP.a(uda1341ts.o)
                              ./lab9-efectos.o (uda1341ts_init)
../../BSP/Debug\libBSP.a(dma.o)
                              ../../BSP/Debug\libBSP.a(iis.o) (bdma0_init)
../../BSP/Debug\libBSP.a(l3.o)
                              ../../BSP/Debug\libBSP.a(uda1341ts.o) (L3_init)
../../BSP/Debug\libBSP.a(leds.o)
                              ../../BSP/Debug\libBSP.a(l3.o) (led_status)
c:/software/electronica/arm/eclipsearm/sourcery-g++-lite-arm-2011.03/bin/../lib/gcc/arm-none-eabi/4.5.2\libgcc.a(_udivsi3.o)
                              ../../BSP/Debug\libBSP.a(timers.o) (__aeabi_uidiv)
c:/software/electronica/arm/eclipsearm/sourcery-g++-lite-arm-2011.03/bin/../lib/gcc/arm-none-eabi/4.5.2\libgcc.a(_dvmd_tls.o)
                              c:/software/electronica/arm/eclipsearm/sourcery-g++-lite-arm-2011.03/bin/../lib/gcc/arm-none-eabi/4.5.2\libgcc.a(_udivsi3.o) (__aeabi_idiv0)
c:/software/electronica/arm/eclipsearm/sourcery-g++-lite-arm-2011.03/bin/../lib/gcc/arm-none-eabi/4.5.2\libgcc.a(_aeabi_uldivmod.o)
                              ../../BSP/Debug\libBSP.a(timers.o) (__aeabi_uldivmod)
c:/software/electronica/arm/eclipsearm/sourcery-g++-lite-arm-2011.03/bin/../lib/gcc/arm-none-eabi/4.5.2\libgcc.a(bpabi.o)
                              c:/software/electronica/arm/eclipsearm/sourcery-g++-lite-arm-2011.03/bin/../lib/gcc/arm-none-eabi/4.5.2\libgcc.a(_aeabi_uldivmod.o) (__gnu_uldivmod_helper)
c:/software/electronica/arm/eclipsearm/sourcery-g++-lite-arm-2011.03/bin/../lib/gcc/arm-none-eabi/4.5.2\libgcc.a(_divdi3.o)
                              c:/software/electronica/arm/eclipsearm/sourcery-g++-lite-arm-2011.03/bin/../lib/gcc/arm-none-eabi/4.5.2\libgcc.a(bpabi.o) (__divdi3)
c:/software/electronica/arm/eclipsearm/sourcery-g++-lite-arm-2011.03/bin/../lib/gcc/arm-none-eabi/4.5.2\libgcc.a(_udivdi3.o)
                              c:/software/electronica/arm/eclipsearm/sourcery-g++-lite-arm-2011.03/bin/../lib/gcc/arm-none-eabi/4.5.2\libgcc.a(bpabi.o) (__udivdi3)
c:/software/electronica/arm/eclipsearm/sourcery-g++-lite-arm-2011.03/bin/../lib/gcc/arm-none-eabi/4.5.2\libgcc.a(_clzsi2.o)
                              c:/software/electronica/arm/eclipsearm/sourcery-g++-lite-arm-2011.03/bin/../lib/gcc/arm-none-eabi/4.5.2\libgcc.a(_divdi3.o) (__clzsi2)

Allocating common symbols
Common symbol       size              file

buffer              0x9c400           ./lab9-efectos.o
delay_buffer        0x1f406           ./lab9-efectos.o

Memory Configuration

Name             Origin             Length             Attributes
*default*        0x00000000         0xffffffff

Linker script and memory map

LOAD ./lab9-efectos.o
LOAD ../../BSP/Debug\libBSP.a
START GROUP
LOAD c:/software/electronica/arm/eclipsearm/sourcery-g++-lite-arm-2011.03/bin/../lib/gcc/arm-none-eabi/4.5.2\libgcc.a
LOAD c:/software/electronica/arm/eclipsearm/sourcery-g++-lite-arm-2011.03/bin/../lib/gcc/arm-none-eabi/4.5.2/../../../../arm-none-eabi/lib\libc.a
END GROUP
                0x0c100000                . = 0xc100000

.text           0x0c100000     0x4b50
 *(.text)
 .text          0x0c100000      0xf40 ./lab9-efectos.o
                0x0c100000                main
                0x0c100cf0                audiodelay_init
                0x0c100dac                audiodelay_put
                0x0c100e74                audiodelay_get
 .text          0x0c100f40      0x6ec ../../BSP/Debug\libBSP.a(iis.o)
                0x0c100f40                iis_init
                0x0c10105c                iis_putSample
                0x0c1010c0                iis_getSample
                0x0c101134                iis_play
                0x0c101314                iis_rec
                0x0c101490                iis_pause
                0x0c1014c0                iis_continue
                0x0c1014f0                iis_status
                0x0c101524                iis_playWawFile
 .text          0x0c10162c      0x4c8 ../../BSP/Debug\libBSP.a(keypad.o)
                0x0c10162c                keypad_scan
                0x0c101850                keypad_pressed
                0x0c10188c                keypad_open
                0x0c1018e4                keypad_close
                0x0c101928                keypad_init
                0x0c101944                keypad_getchar
                0x0c1019ac                keypad_getchartime
                0x0c101a48                keypad_timeout_getchar
 .text          0x0c101af4       0xd4 ../../BSP/Debug\libBSP.a(segs.o)
                0x0c101af4                segs_init
                0x0c101b10                segs_off
                0x0c101b48                segs_putchar
                0x0c101ba0                segs_status
 .text          0x0c101bc8      0xde4 ../../BSP/Debug\libBSP.a(system.o)
                0x0c101bc8                sys_init
                0x0c102138                isr_SWI_dummy
                0x0c102164                isr_UNDEF_dummy
                0x0c102190                isr_IRQ_dummy
                0x0c1021bc                isr_FIQ_dummy
                0x0c1021e8                isr_PABORT_dummy
                0x0c102214                isr_DABORT_dummy
                0x0c102240                isr_ADC_dummy
                0x0c10226c                isr_RTC_dummy
                0x0c102298                isr_UTXD1_dummy
                0x0c1022c4                isr_UTXD0_dummy
                0x0c1022f0                isr_SIO_dummy
                0x0c10231c                isr_IIC_dummy
                0x0c102348                isr_URXD1_dummy
                0x0c102374                isr_URXD0_dummy
                0x0c1023a0                isr_TIMER5_dummy
                0x0c1023cc                isr_TIMER4_dummy
                0x0c1023f8                isr_TIMER3_dummy
                0x0c102424                isr_TIMER2_dummy
                0x0c102450                isr_TIMER1_dummy
                0x0c10247c                isr_TIMER0_dummy
                0x0c1024a8                isr_UERR01_dummy
                0x0c1024d4                isr_WDT_dummy
                0x0c102500                isr_BDMA1_dummy
                0x0c10252c                isr_BDMA0_dummy
                0x0c102558                isr_ZDMA1_dummy
                0x0c102584                isr_ZDMA0_dummy
                0x0c1025b0                isr_TICK_dummy
                0x0c1025dc                isr_PB_dummy
                0x0c102608                isr_ETHERNET_dummy
                0x0c102634                isr_TS_dummy
                0x0c102660                isr_KEYPAD_dummy
                0x0c10268c                isr_USB_dummy
                0x0c10275c                sleep
 .text          0x0c1029ac      0xa50 ../../BSP/Debug\libBSP.a(timers.o)
                0x0c1029ac                timers_init
                0x0c102b6c                wait_for_1ms
                0x0c102c24                wait_for_1s
                0x0c102ce8                timer3_delay_ms
                0x0c102d2c                sw_delay_ms
                0x0c102d84                timer3_delay_s
                0x0c102dc8                sw_delay_s
                0x0c102e20                timer3_start
                0x0c102ed0                timer3_stop
                0x0c102f24                timer3_start_timeout
                0x0c102fdc                timer3_timeout
                0x0c103018                timer0_open_tick
                0x0c103254                timer0_open_ms
                0x0c103360                timer0_close
 .text          0x0c1033fc      0x5c0 ../../BSP/Debug\libBSP.a(uart.o)
                0x0c1033fc                uart0_init
                0x0c103460                uart0_putchar
                0x0c1034b0                uart0_getchar
                0x0c1034f8                uart0_puts
                0x0c103548                uart0_putint
                0x0c103680                uart0_puthex
                0x0c103738                uart0_gets
                0x0c1037a4                uart0_getint
                0x0c1038b8                uart0_gethex
 .text          0x0c1039bc      0x294 ../../BSP/Debug\libBSP.a(uda1341ts.o)
                0x0c1039bc                uda1341ts_init
                0x0c103a38                uda1341ts_mute
                0x0c103a94                uda1341ts_on
                0x0c103b04                uda1341ts_off
                0x0c103b78                uda1341ts_status
                0x0c103bc8                uda1341ts_setvol
                0x0c103c28                uda1341ts_getvol
 .text          0x0c103c50       0xf8 ../../BSP/Debug\libBSP.a(dma.o)
                0x0c103c50                bdma0_init
                0x0c103ca4                bdma0_open
                0x0c103d00                bdma0_close
 .text          0x0c103d48      0x1ac ../../BSP/Debug\libBSP.a(l3.o)
                0x0c103d48                L3_init
                0x0c103d78                L3_putByte
 .text          0x0c103ef4      0x164 ../../BSP/Debug\libBSP.a(leds.o)
                0x0c103ef4                leds_init
                0x0c103f34                led_on
                0x0c103f7c                led_off
                0x0c103fc0                led_toggle
                0x0c104004                led_status
 .text          0x0c104058      0x114 c:/software/electronica/arm/eclipsearm/sourcery-g++-lite-arm-2011.03/bin/../lib/gcc/arm-none-eabi/4.5.2\libgcc.a(_udivsi3.o)
                0x0c104058                __aeabi_uidiv
                0x0c104058                __udivsi3
                0x0c10414c                __aeabi_uidivmod
 .text          0x0c10416c        0x4 c:/software/electronica/arm/eclipsearm/sourcery-g++-lite-arm-2011.03/bin/../lib/gcc/arm-none-eabi/4.5.2\libgcc.a(_dvmd_tls.o)
                0x0c10416c                __aeabi_idiv0
                0x0c10416c                __aeabi_ldiv0
 .text          0x0c104170       0x3c c:/software/electronica/arm/eclipsearm/sourcery-g++-lite-arm-2011.03/bin/../lib/gcc/arm-none-eabi/4.5.2\libgcc.a(_aeabi_uldivmod.o)
                0x0c104170                __aeabi_uldivmod
 .text          0x0c1041ac       0x80 c:/software/electronica/arm/eclipsearm/sourcery-g++-lite-arm-2011.03/bin/../lib/gcc/arm-none-eabi/4.5.2\libgcc.a(bpabi.o)
                0x0c1041ac                __gnu_ldivmod_helper
                0x0c1041ec                __gnu_uldivmod_helper
 .text          0x0c10422c      0x4a8 c:/software/electronica/arm/eclipsearm/sourcery-g++-lite-arm-2011.03/bin/../lib/gcc/arm-none-eabi/4.5.2\libgcc.a(_divdi3.o)
                0x0c10422c                __divdi3
 .text          0x0c1046d4      0x434 c:/software/electronica/arm/eclipsearm/sourcery-g++-lite-arm-2011.03/bin/../lib/gcc/arm-none-eabi/4.5.2\libgcc.a(_udivdi3.o)
                0x0c1046d4                __udivdi3
 .text          0x0c104b08       0x48 c:/software/electronica/arm/eclipsearm/sourcery-g++-lite-arm-2011.03/bin/../lib/gcc/arm-none-eabi/4.5.2\libgcc.a(_clzsi2.o)
                0x0c104b08                __clzsi2

.glue_7         0x0c104b50        0x0
 .glue_7        0x00000000        0x0 linker stubs

.glue_7t        0x0c104b50        0x0
 .glue_7t       0x00000000        0x0 linker stubs

.vfp11_veneer   0x0c104b50        0x0
 .vfp11_veneer  0x00000000        0x0 linker stubs

.v4_bx          0x0c104b50        0x0
 .v4_bx         0x00000000        0x0 linker stubs

.rodata         0x0c104b50      0xa48
 *(.rodata)
 .rodata        0x0c104b50      0x31c ./lab9-efectos.o
 .rodata        0x0c104e6c       0x10 ../../BSP/Debug\libBSP.a(segs.o)
 .rodata        0x0c104e7c      0x71c ../../BSP/Debug\libBSP.a(system.o)

.ARM.extab      0x0c105598        0x0
 .ARM.extab     0x0c105598        0x0 c:/software/electronica/arm/eclipsearm/sourcery-g++-lite-arm-2011.03/bin/../lib/gcc/arm-none-eabi/4.5.2\libgcc.a(_divdi3.o)
 .ARM.extab     0x0c105598        0x0 c:/software/electronica/arm/eclipsearm/sourcery-g++-lite-arm-2011.03/bin/../lib/gcc/arm-none-eabi/4.5.2\libgcc.a(_udivdi3.o)

.ARM.exidx      0x0c105598        0x8
 .ARM.exidx     0x0c105598        0x8 c:/software/electronica/arm/eclipsearm/sourcery-g++-lite-arm-2011.03/bin/../lib/gcc/arm-none-eabi/4.5.2\libgcc.a(_divdi3.o)
 .ARM.exidx     0x0c1055a0        0x0 c:/software/electronica/arm/eclipsearm/sourcery-g++-lite-arm-2011.03/bin/../lib/gcc/arm-none-eabi/4.5.2\libgcc.a(_udivdi3.o)
                                  0x8 (size before relaxing)

.data           0x0c1055a0       0xd8
 *(.data)
 .data          0x0c1055a0       0xd8 ./lab9-efectos.o
                0x0c1055a0                triangle
                0x0c1055e8                square
                0x0c105630                sine
 .data          0x0c105678        0x0 ../../BSP/Debug\libBSP.a(iis.o)
 .data          0x0c105678        0x0 ../../BSP/Debug\libBSP.a(keypad.o)
 .data          0x0c105678        0x0 ../../BSP/Debug\libBSP.a(segs.o)
 .data          0x0c105678        0x0 ../../BSP/Debug\libBSP.a(system.o)
 .data          0x0c105678        0x0 ../../BSP/Debug\libBSP.a(timers.o)
 .data          0x0c105678        0x0 ../../BSP/Debug\libBSP.a(uart.o)
 .data          0x0c105678        0x0 ../../BSP/Debug\libBSP.a(uda1341ts.o)
 .data          0x0c105678        0x0 ../../BSP/Debug\libBSP.a(dma.o)
 .data          0x0c105678        0x0 ../../BSP/Debug\libBSP.a(l3.o)
 .data          0x0c105678        0x0 ../../BSP/Debug\libBSP.a(leds.o)
 .data          0x0c105678        0x0 c:/software/electronica/arm/eclipsearm/sourcery-g++-lite-arm-2011.03/bin/../lib/gcc/arm-none-eabi/4.5.2\libgcc.a(_udivsi3.o)
 .data          0x0c105678        0x0 c:/software/electronica/arm/eclipsearm/sourcery-g++-lite-arm-2011.03/bin/../lib/gcc/arm-none-eabi/4.5.2\libgcc.a(_dvmd_tls.o)
 .data          0x0c105678        0x0 c:/software/electronica/arm/eclipsearm/sourcery-g++-lite-arm-2011.03/bin/../lib/gcc/arm-none-eabi/4.5.2\libgcc.a(_aeabi_uldivmod.o)
 .data          0x0c105678        0x0 c:/software/electronica/arm/eclipsearm/sourcery-g++-lite-arm-2011.03/bin/../lib/gcc/arm-none-eabi/4.5.2\libgcc.a(bpabi.o)
 .data          0x0c105678        0x0 c:/software/electronica/arm/eclipsearm/sourcery-g++-lite-arm-2011.03/bin/../lib/gcc/arm-none-eabi/4.5.2\libgcc.a(_divdi3.o)
 .data          0x0c105678        0x0 c:/software/electronica/arm/eclipsearm/sourcery-g++-lite-arm-2011.03/bin/../lib/gcc/arm-none-eabi/4.5.2\libgcc.a(_udivdi3.o)
 .data          0x0c105678        0x0 c:/software/electronica/arm/eclipsearm/sourcery-g++-lite-arm-2011.03/bin/../lib/gcc/arm-none-eabi/4.5.2\libgcc.a(_clzsi2.o)

.bss            0x0c105678    0xbb816
 *(.bss)
 .bss           0x0c105678        0x0 ./lab9-efectos.o
 .bss           0x0c105678        0x1 ../../BSP/Debug\libBSP.a(iis.o)
 .bss           0x0c105679        0x0 ../../BSP/Debug\libBSP.a(keypad.o)
 .bss           0x0c105679        0x1 ../../BSP/Debug\libBSP.a(segs.o)
 .bss           0x0c10567a        0x0 ../../BSP/Debug\libBSP.a(system.o)
 *fill*         0x0c10567a        0x2 00
 .bss           0x0c10567c        0x8 ../../BSP/Debug\libBSP.a(timers.o)
 .bss           0x0c105684        0x0 ../../BSP/Debug\libBSP.a(uart.o)
 .bss           0x0c105684        0x2 ../../BSP/Debug\libBSP.a(uda1341ts.o)
 .bss           0x0c105686        0x0 ../../BSP/Debug\libBSP.a(dma.o)
 .bss           0x0c105686        0x0 ../../BSP/Debug\libBSP.a(l3.o)
 .bss           0x0c105686        0x0 ../../BSP/Debug\libBSP.a(leds.o)
 .bss           0x0c105686        0x0 c:/software/electronica/arm/eclipsearm/sourcery-g++-lite-arm-2011.03/bin/../lib/gcc/arm-none-eabi/4.5.2\libgcc.a(_udivsi3.o)
 .bss           0x0c105686        0x0 c:/software/electronica/arm/eclipsearm/sourcery-g++-lite-arm-2011.03/bin/../lib/gcc/arm-none-eabi/4.5.2\libgcc.a(_dvmd_tls.o)
 .bss           0x0c105686        0x0 c:/software/electronica/arm/eclipsearm/sourcery-g++-lite-arm-2011.03/bin/../lib/gcc/arm-none-eabi/4.5.2\libgcc.a(_aeabi_uldivmod.o)
 .bss           0x0c105686        0x0 c:/software/electronica/arm/eclipsearm/sourcery-g++-lite-arm-2011.03/bin/../lib/gcc/arm-none-eabi/4.5.2\libgcc.a(bpabi.o)
 .bss           0x0c105686        0x0 c:/software/electronica/arm/eclipsearm/sourcery-g++-lite-arm-2011.03/bin/../lib/gcc/arm-none-eabi/4.5.2\libgcc.a(_divdi3.o)
 .bss           0x0c105686        0x0 c:/software/electronica/arm/eclipsearm/sourcery-g++-lite-arm-2011.03/bin/../lib/gcc/arm-none-eabi/4.5.2\libgcc.a(_udivdi3.o)
 .bss           0x0c105686        0x0 c:/software/electronica/arm/eclipsearm/sourcery-g++-lite-arm-2011.03/bin/../lib/gcc/arm-none-eabi/4.5.2\libgcc.a(_clzsi2.o)
 *fill*         0x0c105686        0x2 00
 COMMON         0x0c105688    0xbb806 ./lab9-efectos.o
                0x0c105688                buffer
                0x0c1a1a88                delay_buffer
                0x0c1c0e8e                end = .
OUTPUT(lab9-efectos.elf elf32-littlearm)

.debug_abbrev   0x00000000      0x8d6
 .debug_abbrev  0x00000000      0x12c ./lab9-efectos.o
 .debug_abbrev  0x0000012c       0xd4 ../../BSP/Debug\libBSP.a(iis.o)
 .debug_abbrev  0x00000200       0xe9 ../../BSP/Debug\libBSP.a(keypad.o)
 .debug_abbrev  0x000002e9       0xb3 ../../BSP/Debug\libBSP.a(segs.o)
 .debug_abbrev  0x0000039c       0xeb ../../BSP/Debug\libBSP.a(system.o)
 .debug_abbrev  0x00000487       0xdd ../../BSP/Debug\libBSP.a(timers.o)
 .debug_abbrev  0x00000564       0xfd ../../BSP/Debug\libBSP.a(uart.o)
 .debug_abbrev  0x00000661       0xc2 ../../BSP/Debug\libBSP.a(uda1341ts.o)
 .debug_abbrev  0x00000723       0x84 ../../BSP/Debug\libBSP.a(dma.o)
 .debug_abbrev  0x000007a7       0xa4 ../../BSP/Debug\libBSP.a(l3.o)
 .debug_abbrev  0x0000084b       0x8b ../../BSP/Debug\libBSP.a(leds.o)

.debug_info     0x00000000     0x1701
 .debug_info    0x00000000      0x32c ./lab9-efectos.o
 .debug_info    0x0000032c      0x2ac ../../BSP/Debug\libBSP.a(iis.o)
 .debug_info    0x000005d8      0x1c2 ../../BSP/Debug\libBSP.a(keypad.o)
 .debug_info    0x0000079a      0x10d ../../BSP/Debug\libBSP.a(segs.o)
 .debug_info    0x000008a7      0x423 ../../BSP/Debug\libBSP.a(system.o)
 .debug_info    0x00000cca      0x2c7 ../../BSP/Debug\libBSP.a(timers.o)
 .debug_info    0x00000f91      0x2b8 ../../BSP/Debug\libBSP.a(uart.o)
 .debug_info    0x00001249      0x188 ../../BSP/Debug\libBSP.a(uda1341ts.o)
 .debug_info    0x000013d1       0xc7 ../../BSP/Debug\libBSP.a(dma.o)
 .debug_info    0x00001498      0x13c ../../BSP/Debug\libBSP.a(l3.o)
 .debug_info    0x000015d4      0x12d ../../BSP/Debug\libBSP.a(leds.o)

.debug_line     0x00000000      0xc70
 .debug_line    0x00000000      0x244 ./lab9-efectos.o
 .debug_line    0x00000244      0x121 ../../BSP/Debug\libBSP.a(iis.o)
 .debug_line    0x00000365      0x114 ../../BSP/Debug\libBSP.a(keypad.o)
 .debug_line    0x00000479       0x93 ../../BSP/Debug\libBSP.a(segs.o)
 .debug_line    0x0000050c      0x23c ../../BSP/Debug\libBSP.a(system.o)
 .debug_line    0x00000748      0x191 ../../BSP/Debug\libBSP.a(timers.o)
 .debug_line    0x000008d9      0x11e ../../BSP/Debug\libBSP.a(uart.o)
 .debug_line    0x000009f7       0xa5 ../../BSP/Debug\libBSP.a(uda1341ts.o)
 .debug_line    0x00000a9c       0x90 ../../BSP/Debug\libBSP.a(dma.o)
 .debug_line    0x00000b2c       0xbb ../../BSP/Debug\libBSP.a(l3.o)
 .debug_line    0x00000be7       0x89 ../../BSP/Debug\libBSP.a(leds.o)

.debug_macinfo  0x00000000    0x3113d
 .debug_macinfo
                0x00000000     0x4ad9 ./lab9-efectos.o
 .debug_macinfo
                0x00004ad9     0x4d1f ../../BSP/Debug\libBSP.a(iis.o)
 .debug_macinfo
                0x000097f8     0x4eba ../../BSP/Debug\libBSP.a(keypad.o)
 .debug_macinfo
                0x0000e6b2     0x4d01 ../../BSP/Debug\libBSP.a(segs.o)
 .debug_macinfo
                0x000133b3     0x5568 ../../BSP/Debug\libBSP.a(system.o)
 .debug_macinfo
                0x0001891b     0x4d1b ../../BSP/Debug\libBSP.a(timers.o)
 .debug_macinfo
                0x0001d636     0x430d ../../BSP/Debug\libBSP.a(uart.o)
 .debug_macinfo
                0x00021943     0x244e ../../BSP/Debug\libBSP.a(uda1341ts.o)
 .debug_macinfo
                0x00023d91     0x4cee ../../BSP/Debug\libBSP.a(dma.o)
 .debug_macinfo
                0x00028a7f     0x4392 ../../BSP/Debug\libBSP.a(l3.o)
 .debug_macinfo
                0x0002ce11     0x432c ../../BSP/Debug\libBSP.a(leds.o)

.debug_loc      0x00000000     0x120c
 .debug_loc     0x00000000       0xb0 ./lab9-efectos.o
 .debug_loc     0x000000b0      0x1b8 ../../BSP/Debug\libBSP.a(iis.o)
 .debug_loc     0x00000268      0x160 ../../BSP/Debug\libBSP.a(keypad.o)
 .debug_loc     0x000003c8       0xb0 ../../BSP/Debug\libBSP.a(segs.o)
 .debug_loc     0x00000478      0x688 ../../BSP/Debug\libBSP.a(system.o)
 .debug_loc     0x00000b00      0x294 ../../BSP/Debug\libBSP.a(timers.o)
 .debug_loc     0x00000d94      0x18c ../../BSP/Debug\libBSP.a(uart.o)
 .debug_loc     0x00000f20      0x134 ../../BSP/Debug\libBSP.a(uda1341ts.o)
 .debug_loc     0x00001054       0x84 ../../BSP/Debug\libBSP.a(dma.o)
 .debug_loc     0x000010d8       0x58 ../../BSP/Debug\libBSP.a(l3.o)
 .debug_loc     0x00001130       0xdc ../../BSP/Debug\libBSP.a(leds.o)

.debug_pubnames
                0x00000000      0x7d8
 .debug_pubnames
                0x00000000       0x92 ./lab9-efectos.o
 .debug_pubnames
                0x00000092       0x9e ../../BSP/Debug\libBSP.a(iis.o)
 .debug_pubnames
                0x00000130       0xab ../../BSP/Debug\libBSP.a(keypad.o)
 .debug_pubnames
                0x000001db       0x4e ../../BSP/Debug\libBSP.a(segs.o)
 .debug_pubnames
                0x00000229      0x29d ../../BSP/Debug\libBSP.a(system.o)
 .debug_pubnames
                0x000004c6      0x10f ../../BSP/Debug\libBSP.a(timers.o)
 .debug_pubnames
                0x000005d5       0xa7 ../../BSP/Debug\libBSP.a(uart.o)
 .debug_pubnames
                0x0000067c       0x9a ../../BSP/Debug\libBSP.a(uda1341ts.o)
 .debug_pubnames
                0x00000716       0x40 ../../BSP/Debug\libBSP.a(dma.o)
 .debug_pubnames
                0x00000756       0x2d ../../BSP/Debug\libBSP.a(l3.o)
 .debug_pubnames
                0x00000783       0x55 ../../BSP/Debug\libBSP.a(leds.o)

.debug_pubtypes
                0x00000000      0x205
 .debug_pubtypes
                0x00000000       0x55 ./lab9-efectos.o
 .debug_pubtypes
                0x00000055       0x31 ../../BSP/Debug\libBSP.a(iis.o)
 .debug_pubtypes
                0x00000086       0x32 ../../BSP/Debug\libBSP.a(keypad.o)
 .debug_pubtypes
                0x000000b8       0x1c ../../BSP/Debug\libBSP.a(segs.o)
 .debug_pubtypes
                0x000000d4       0x27 ../../BSP/Debug\libBSP.a(system.o)
 .debug_pubtypes
                0x000000fb       0x3d ../../BSP/Debug\libBSP.a(timers.o)
 .debug_pubtypes
                0x00000138       0x3d ../../BSP/Debug\libBSP.a(uart.o)
 .debug_pubtypes
                0x00000175       0x1c ../../BSP/Debug\libBSP.a(uda1341ts.o)
 .debug_pubtypes
                0x00000191       0x1d ../../BSP/Debug\libBSP.a(dma.o)
 .debug_pubtypes
                0x000001ae       0x30 ../../BSP/Debug\libBSP.a(l3.o)
 .debug_pubtypes
                0x000001de       0x27 ../../BSP/Debug\libBSP.a(leds.o)

.debug_aranges  0x00000000      0x160
 .debug_aranges
                0x00000000       0x20 ./lab9-efectos.o
 .debug_aranges
                0x00000020       0x20 ../../BSP/Debug\libBSP.a(iis.o)
 .debug_aranges
                0x00000040       0x20 ../../BSP/Debug\libBSP.a(keypad.o)
 .debug_aranges
                0x00000060       0x20 ../../BSP/Debug\libBSP.a(segs.o)
 .debug_aranges
                0x00000080       0x20 ../../BSP/Debug\libBSP.a(system.o)
 .debug_aranges
                0x000000a0       0x20 ../../BSP/Debug\libBSP.a(timers.o)
 .debug_aranges
                0x000000c0       0x20 ../../BSP/Debug\libBSP.a(uart.o)
 .debug_aranges
                0x000000e0       0x20 ../../BSP/Debug\libBSP.a(uda1341ts.o)
 .debug_aranges
                0x00000100       0x20 ../../BSP/Debug\libBSP.a(dma.o)
 .debug_aranges
                0x00000120       0x20 ../../BSP/Debug\libBSP.a(l3.o)
 .debug_aranges
                0x00000140       0x20 ../../BSP/Debug\libBSP.a(leds.o)

.debug_str      0x00000000      0x7df
 .debug_str     0x00000000      0x12b ./lab9-efectos.o
                                0x151 (size before relaxing)
 .debug_str     0x0000012b       0xaf ../../BSP/Debug\libBSP.a(iis.o)
                                0x147 (size before relaxing)
 .debug_str     0x000001da       0x91 ../../BSP/Debug\libBSP.a(keypad.o)
                                0x131 (size before relaxing)
 .debug_str     0x0000026b       0x49 ../../BSP/Debug\libBSP.a(segs.o)
                                 0xdb (size before relaxing)
 .debug_str     0x000002b4      0x265 ../../BSP/Debug\libBSP.a(system.o)
                                0x303 (size before relaxing)
 .debug_str     0x00000519       0xf9 ../../BSP/Debug\libBSP.a(timers.o)
                                0x19e (size before relaxing)
 .debug_str     0x00000612       0xa3 ../../BSP/Debug\libBSP.a(uart.o)
                                0x147 (size before relaxing)
 .debug_str     0x000006b5       0x90 ../../BSP/Debug\libBSP.a(uda1341ts.o)
                                0x128 (size before relaxing)
 .debug_str     0x00000745       0x2f ../../BSP/Debug\libBSP.a(dma.o)
                                 0xc2 (size before relaxing)
 .debug_str     0x00000774       0x2e ../../BSP/Debug\libBSP.a(l3.o)
                                 0xd1 (size before relaxing)
 .debug_str     0x000007a2       0x3d ../../BSP/Debug\libBSP.a(leds.o)
                                 0xd6 (size before relaxing)

.comment        0x00000000       0x2a
 .comment       0x00000000       0x2a ./lab9-efectos.o
                                 0x2b (size before relaxing)
 .comment       0x00000000       0x2b ../../BSP/Debug\libBSP.a(iis.o)
 .comment       0x00000000       0x2b ../../BSP/Debug\libBSP.a(keypad.o)
 .comment       0x00000000       0x2b ../../BSP/Debug\libBSP.a(segs.o)
 .comment       0x00000000       0x2b ../../BSP/Debug\libBSP.a(system.o)
 .comment       0x00000000       0x2b ../../BSP/Debug\libBSP.a(timers.o)
 .comment       0x00000000       0x2b ../../BSP/Debug\libBSP.a(uart.o)
 .comment       0x00000000       0x2b ../../BSP/Debug\libBSP.a(uda1341ts.o)
 .comment       0x00000000       0x2b ../../BSP/Debug\libBSP.a(dma.o)
 .comment       0x00000000       0x2b ../../BSP/Debug\libBSP.a(l3.o)
 .comment       0x00000000       0x2b ../../BSP/Debug\libBSP.a(leds.o)

.ARM.attributes
                0x00000000       0x32
 .ARM.attributes
                0x00000000       0x32 ./lab9-efectos.o
 .ARM.attributes
                0x00000032       0x32 ../../BSP/Debug\libBSP.a(iis.o)
 .ARM.attributes
                0x00000064       0x32 ../../BSP/Debug\libBSP.a(keypad.o)
 .ARM.attributes
                0x00000096       0x32 ../../BSP/Debug\libBSP.a(segs.o)
 .ARM.attributes
                0x000000c8       0x32 ../../BSP/Debug\libBSP.a(system.o)
 .ARM.attributes
                0x000000fa       0x32 ../../BSP/Debug\libBSP.a(timers.o)
 .ARM.attributes
                0x0000012c       0x32 ../../BSP/Debug\libBSP.a(uart.o)
 .ARM.attributes
                0x0000015e       0x32 ../../BSP/Debug\libBSP.a(uda1341ts.o)
 .ARM.attributes
                0x00000190       0x32 ../../BSP/Debug\libBSP.a(dma.o)
 .ARM.attributes
                0x000001c2       0x32 ../../BSP/Debug\libBSP.a(l3.o)
 .ARM.attributes
                0x000001f4       0x32 ../../BSP/Debug\libBSP.a(leds.o)
 .ARM.attributes
                0x00000226       0x1a c:/software/electronica/arm/eclipsearm/sourcery-g++-lite-arm-2011.03/bin/../lib/gcc/arm-none-eabi/4.5.2\libgcc.a(_udivsi3.o)
 .ARM.attributes
                0x00000240       0x18 c:/software/electronica/arm/eclipsearm/sourcery-g++-lite-arm-2011.03/bin/../lib/gcc/arm-none-eabi/4.5.2\libgcc.a(_dvmd_tls.o)
 .ARM.attributes
                0x00000258       0x1a c:/software/electronica/arm/eclipsearm/sourcery-g++-lite-arm-2011.03/bin/../lib/gcc/arm-none-eabi/4.5.2\libgcc.a(_aeabi_uldivmod.o)
 .ARM.attributes
                0x00000272       0x34 c:/software/electronica/arm/eclipsearm/sourcery-g++-lite-arm-2011.03/bin/../lib/gcc/arm-none-eabi/4.5.2\libgcc.a(bpabi.o)
 .ARM.attributes
                0x000002a6       0x34 c:/software/electronica/arm/eclipsearm/sourcery-g++-lite-arm-2011.03/bin/../lib/gcc/arm-none-eabi/4.5.2\libgcc.a(_divdi3.o)
 .ARM.attributes
                0x000002da       0x34 c:/software/electronica/arm/eclipsearm/sourcery-g++-lite-arm-2011.03/bin/../lib/gcc/arm-none-eabi/4.5.2\libgcc.a(_udivdi3.o)
 .ARM.attributes
                0x0000030e       0x1a c:/software/electronica/arm/eclipsearm/sourcery-g++-lite-arm-2011.03/bin/../lib/gcc/arm-none-eabi/4.5.2\libgcc.a(_clzsi2.o)

.debug_frame    0x00000000     0x1048
 .debug_frame   0x00000000       0x90 ./lab9-efectos.o
 .debug_frame   0x00000090      0x158 ../../BSP/Debug\libBSP.a(iis.o)
 .debug_frame   0x000001e8      0x110 ../../BSP/Debug\libBSP.a(keypad.o)
 .debug_frame   0x000002f8       0x90 ../../BSP/Debug\libBSP.a(segs.o)
 .debug_frame   0x00000388      0x650 ../../BSP/Debug\libBSP.a(system.o)
 .debug_frame   0x000009d8      0x1f8 ../../BSP/Debug\libBSP.a(timers.o)
 .debug_frame   0x00000bd0      0x130 ../../BSP/Debug\libBSP.a(uart.o)
 .debug_frame   0x00000d00       0xf0 ../../BSP/Debug\libBSP.a(uda1341ts.o)
 .debug_frame   0x00000df0       0x70 ../../BSP/Debug\libBSP.a(dma.o)
 .debug_frame   0x00000e60       0x50 ../../BSP/Debug\libBSP.a(l3.o)
 .debug_frame   0x00000eb0       0xb0 ../../BSP/Debug\libBSP.a(leds.o)
 .debug_frame   0x00000f60       0x20 c:/software/electronica/arm/eclipsearm/sourcery-g++-lite-arm-2011.03/bin/../lib/gcc/arm-none-eabi/4.5.2\libgcc.a(_udivsi3.o)
 .debug_frame   0x00000f80       0x50 c:/software/electronica/arm/eclipsearm/sourcery-g++-lite-arm-2011.03/bin/../lib/gcc/arm-none-eabi/4.5.2\libgcc.a(bpabi.o)
 .debug_frame   0x00000fd0       0x3c c:/software/electronica/arm/eclipsearm/sourcery-g++-lite-arm-2011.03/bin/../lib/gcc/arm-none-eabi/4.5.2\libgcc.a(_divdi3.o)
 .debug_frame   0x0000100c       0x3c c:/software/electronica/arm/eclipsearm/sourcery-g++-lite-arm-2011.03/bin/../lib/gcc/arm-none-eabi/4.5.2\libgcc.a(_udivdi3.o)
